target datalayout = "e-m:e-p270:32:32-p271:32:32-p272:64:64-i64:64-i128:128-f80:128-n8:16:32:64-S128"
target triple = "x86_64-pc-linux-gnu"

%struct.avifScalingMode = type { %struct.avifFraction, %struct.avifFraction }
%struct.avifFraction = type { i32, i32 }
%struct.avifRWData = type { ptr, i64 }
%struct.avifEncoder = type { i32, i32, i32, i32, i64, i32, i32, i32, i32, i32, i32, i32, i32, i32, i32, i32, %struct.avifScalingMode, %struct.avifIOStats, %struct.avifDiagnostics, ptr, ptr, i32 }
%struct.avifIOStats = type { i64, i64 }
%struct.avifDiagnostics = type { [256 x i8] }
%struct.avifEncoderData = type { %struct.avifEncoderItemArray, %struct.avifEncoderFrameArray, i32, i32, i32, i32, %struct.avifEncoder, i32, i32, i32, i32, ptr, i16, i16, %struct.avifEncoderItemIdArray, i32, i32, i64, ptr, ptr }
%struct.avifEncoderItemArray = type { ptr, i32, i32, i32 }
%struct.avifEncoderFrameArray = type { ptr, i32, i32, i32 }
%struct.avifEncoderItemIdArray = type { ptr, i32, i32, i32 }
%struct.avifEncoderItem = type { i16, [4 x i8], ptr, ptr, %struct.avifRWData, %struct.avifCodecConfigurationBox, i32, i32, i32, ptr, i64, ptr, i64, %struct.avifOffsetFixupArray, i16, ptr, i32, i32, i32, i32, i32, i16, %struct.ipmaArray }
%struct.avifCodecConfigurationBox = type { i8, i8, i8, i8, i8, i8, i8, i8, i8 }
%struct.avifOffsetFixupArray = type { ptr, i32, i32, i32 }
%struct.ipmaArray = type { [16 x i8], [16 x i32], i8 }

@.str.61 = private unnamed_addr constant [5 x i8] c"cdsc\00", align 1
@.str.62 = private unnamed_addr constant [5 x i8] c"mime\00", align 1
@.str.63 = private unnamed_addr constant [4 x i8] c"XMP\00", align 1
@xmpContentType = internal constant [20 x i8] c"application/rdf+xml\00", align 16

; Function Attrs: nounwind uwtable
define internal i32 @avifEncoderDataCreateXMPItem(ptr noundef %0, ptr noundef %1) #0 {
  %3 = alloca i32, align 4
  %4 = alloca ptr, align 8
  %5 = alloca ptr, align 8
  %6 = alloca ptr, align 8
  %7 = alloca i32, align 4
  store ptr %0, ptr %4, align 8
  store ptr %1, ptr %5, align 8
  %8 = load ptr, ptr %4, align 8
  %9 = call ptr @avifEncoderDataCreateItem(ptr noundef %8, ptr noundef @.str.62, ptr noundef @.str.63, i64 noundef 4, i32 noundef 0)
  store ptr %9, ptr %6, align 8
  %10 = load ptr, ptr %6, align 8
  %11 = icmp ne ptr %10, null
  br i1 %11, label %13, label %12

12:                                               ; preds = %2
  store i32 26, ptr %3, align 4
  br label %41

13:                                               ; preds = %2
  %14 = load ptr, ptr %4, align 8
  %15 = getelementptr inbounds nuw %struct.avifEncoderData, ptr %14, i32 0, i32 13
  %16 = load i16, ptr %15, align 2
  %17 = load ptr, ptr %6, align 8
  %18 = getelementptr inbounds nuw %struct.avifEncoderItem, ptr %17, i32 0, i32 14
  store i16 %16, ptr %18, align 8
  %19 = load ptr, ptr %6, align 8
  %20 = getelementptr inbounds nuw %struct.avifEncoderItem, ptr %19, i32 0, i32 15
  store ptr @.str.61, ptr %20, align 8
  %21 = load ptr, ptr %6, align 8
  %22 = getelementptr inbounds nuw %struct.avifEncoderItem, ptr %21, i32 0, i32 11
  store ptr @xmpContentType, ptr %22, align 8
  %23 = load ptr, ptr %6, align 8
  %24 = getelementptr inbounds nuw %struct.avifEncoderItem, ptr %23, i32 0, i32 12
  store i64 20, ptr %24, align 8
  br label %25

25:                                               ; preds = %13
  %26 = load ptr, ptr %6, align 8
  %27 = getelementptr inbounds nuw %struct.avifEncoderItem, ptr %26, i32 0, i32 4
  %28 = load ptr, ptr %5, align 8
  %29 = getelementptr inbounds nuw %struct.avifRWData, ptr %28, i32 0, i32 0
  %30 = load ptr, ptr %29, align 8
  %31 = load ptr, ptr %5, align 8
  %32 = getelementptr inbounds nuw %struct.avifRWData, ptr %31, i32 0, i32 1
  %33 = load i64, ptr %32, align 8
  %34 = call i32 @avifRWDataSet(ptr noundef %27, ptr noundef %30, i64 noundef %33)
  store i32 %34, ptr %7, align 4
  %35 = load i32, ptr %7, align 4
  %36 = icmp ne i32 %35, 0
  br i1 %36, label %37, label %39

37:                                               ; preds = %25
  %38 = load i32, ptr %7, align 4
  store i32 %38, ptr %3, align 4
  br label %41

39:                                               ; preds = %25
  br label %40

40:                                               ; preds = %39
  store i32 0, ptr %3, align 4
  br label %41

41:                                               ; preds = %40, %37, %12
  %42 = load i32, ptr %3, align 4
  ret i32 %42
}