; Function Attrs: nounwind uwtable
define internal fastcc i32 @avifEncoderDataCreateXMPItem(ptr noundef %0, ptr nocapture noundef readonly %1) unnamed_addr #1 {
  %3 = tail call fastcc ptr @avifEncoderDataCreateItem(ptr noundef %0, ptr noundef nonnull @.str.62, ptr noundef nonnull @.str.63, i64 noundef 4, i32 noundef 0)
  %.not = icmp eq ptr %3, null
  br i1 %.not, label %16, label %4

4:                                                ; preds = %2
  %5 = getelementptr inbounds nuw i8, ptr %0, i64 474
  %6 = load i16, ptr %5, align 2
  %7 = getelementptr inbounds nuw i8, ptr %3, i64 120
  store i16 %6, ptr %7, align 8
  %8 = getelementptr inbounds nuw i8, ptr %3, i64 128
  store ptr @.str.61, ptr %8, align 8
  %9 = getelementptr inbounds nuw i8, ptr %3, i64 80
  store ptr @xmpContentType, ptr %9, align 8
  %10 = getelementptr inbounds nuw i8, ptr %3, i64 88
  store i64 20, ptr %10, align 8
  %11 = getelementptr inbounds nuw i8, ptr %3, i64 24
  %12 = load ptr, ptr %1, align 8
  %13 = getelementptr inbounds nuw i8, ptr %1, i64 8
  %14 = load i64, ptr %13, align 8
  %15 = tail call i32 @avifRWDataSet(ptr noundef nonnull %11, ptr noundef %12, i64 noundef %14) #13
  br label %16

16:                                               ; preds = %4, %2
  %.0 = phi i32 [ 26, %2 ], [ %15, %4 ]
  ret i32 %.0
}